; Function Attrs: mustprogress nounwind uwtable
define hidden { ptr, i64 } @_ZNK5clang7targets13ARMTargetInfo10getCPUAttrEv(ptr nocapture noundef nonnull readonly align 8 dereferenceable(624) %0) local_unnamed_addr #0 align 2 {
  %2 = getelementptr inbounds nuw i8, ptr %0, i64 600
  %3 = load i32, ptr %2, align 8
  %switch.tableidx = add i32 %3, -10
  %4 = icmp ult i32 %switch.tableidx, 30
  br i1 %4, label %switch.hole_check, label %5

5:                                                ; preds = %switch.hole_check, %1
  %6 = tail call { ptr, i64 } @_ZN4llvm3ARM10getCPUAttrENS0_8ArchKindE(i32 noundef %3) #24
  %7 = extractvalue { ptr, i64 } %6, 0
  %8 = extractvalue { ptr, i64 } %6, 1
  br label %11

switch.hole_check:                                ; preds = %1
  %switch.shifted = lshr i32 603979775, %switch.tableidx
  %switch.lobit = trunc i32 %switch.shifted to i1
  br i1 %switch.lobit, label %switch.lookup, label %5

switch.lookup:                                    ; preds = %switch.hole_check
  %9 = zext nneg i32 %switch.tableidx to i64
  %switch.gep = getelementptr inbounds [30 x i64], ptr @switch.table._ZNK5clang7targets13ARMTargetInfo10getCPUAttrEv, i64 0, i64 %9
  %switch.load = load i64, ptr %switch.gep, align 8
  %10 = zext nneg i32 %switch.tableidx to i64
  %switch.gep1 = getelementptr inbounds [30 x ptr], ptr @switch.table._ZNK5clang7targets13ARMTargetInfo10getCPUAttrEv.3, i64 0, i64 %10
  %switch.load2 = load ptr, ptr %switch.gep1, align 8
  br label %11

11:                                               ; preds = %switch.lookup, %5
  %.sroa.29.0 = phi i64 [ %8, %5 ], [ %switch.load, %switch.lookup ]
  %.sroa.0.0 = phi ptr [ %7, %5 ], [ %switch.load2, %switch.lookup ]
  %.fca.0.insert = insertvalue { ptr, i64 } poison, ptr %.sroa.0.0, 0
  %.fca.1.insert = insertvalue { ptr, i64 } %.fca.0.insert, i64 %.sroa.29.0, 1
  ret { ptr, i64 } %.fca.1.insert
}